; Function Attrs: nounwind uwtable
define dso_local noundef i64 @pg_drop_replication_slot(ptr noundef readonly captures(none) %0) local_unnamed_addr #0 {
  %2 = getelementptr inbounds nuw i8, ptr %0, i64 32
  %3 = load i64, ptr %2, align 8
  %4 = inttoptr i64 %3 to ptr
  tail call void @CheckSlotPermissions() #9
  tail call void @CheckSlotRequirements() #9
  tail call void @ReplicationSlotDrop(ptr noundef %4, i1 noundef zeroext true) #9
  ret i64 0
}